target datalayout = "e-m:e-p270:32:32-p271:32:32-p272:64:64-i64:64-i128:128-f80:128-n8:16:32:64-S128"
target triple = "x86_64-pc-linux-gnu"

%class.Vmycpu_top___024root = type { %class.VerilatedModule, %struct.anon, %struct.anon.0, %struct.anon.1, %struct.anon.2, %struct.anon.3, %struct.anon.4, %struct.anon.8, [8 x i8], %class.VlTriggerVec, %class.VlTriggerVec.20, %class.VlTriggerVec, %class.VlTriggerVec, ptr, [56 x i8] }
%class.VerilatedModule = type { ptr }
%struct.anon = type { i8, i8, i8, i8, i8, i8, i8, i8, i8, i8, i8, i8, i8, i8, i8, i8, i8, i8, i8, i8, i8, i8, i8, i8, i8, i8, i8, i8, i8, i8, i8, i8, i8, i8, i8, i8, i8, i8, i8, i8, i8, i8, i8, i8, i8, i8, i8, i8, i8, i8, i8, i8, i8, i8, i8, i8, i8, i8, i8, i8, i8, i8, i8, i8 }
%struct.anon.0 = type { i8, i8, i8, i8, i8, i8, i8, i8, i8, i8, i8, i8, i8, i8, i8, i8, i8, i8, i8, i8, i8, i8, i8, i8, i8, i8, i8, i8, i8, i8, i8, i8, i8, i8, i8, i8, i8, i8, i8, i8, i8, i8, i8, i8, i8, i8, i8, i8, i8, i8, i8, i8, i8, i8, i8, i8, i8, i8, i8, i8, i8, i8, i8, i8 }
%struct.anon.1 = type { i8, i8, i8, i8, i8, i8, i8, i8, i8, i8, i8, i8, i8, i8, i8, i8, i8, i8, i8, i8, i8, i8, i8, i8, i8, i8, i8, i8, i8, i8, i8, i8, i8, i8, i8, i8, i8, i8, i8, i8, i8, i8, i8, i8, i8, i8, i8, i8, i8, i8, i8, i8, i8, i8, i8, i8, i8, i8, i8, i8, i8, i8, i8, i8 }
%struct.anon.2 = type { i8, i8, i8, i8, i8, i8, i8, i8, i8, i8, i8, i8, i8, i8, i8, i8, i8, i8, i8, i8, i8, i8, i8, i8, i8, i16, i16, i16, i16, i16, i16, i16, i16, i16, i16, i16, i32, i32, i32, i32, i32, i32, i32, i32, i32, i32, i32, i32, i32, i32, i32, i32, i32, i32, i32, i32, i32, i32, i32, i32, i32, i32, i32, i32 }
%struct.anon.3 = type { i32, i32, i32, i32, i32, i32, i32, i32, i32, i32, i32, i32, i32, i32, i32, i32, i32, i32, i32, i32, i32, i32, i32, i32, i32, i32, i32, i32, i32, i32, i32, i32, i32, i32, i32, i32, i32, i32, i32, i32, i32, i32, i32, i32, i32, i32, i32, i32, i32, i32, i32, i32, i32, i32, i32, i32, i32, i32, i32, i32, i32, i32, i32, i32 }
%struct.anon.4 = type { %struct.VlWide, i32, i32, i32, i32, i32, i32, i32, i32, i32, i32, i32, i32, i32, i32, i32, i32, i32, i32, i32, i32, i32, i32, i32, i32, i32, i32, i32, i32, i32, i32, i32, i32, i32, i32, i32, i32, i32, i32, i32, i32, i32, %struct.VlWide, %struct.VlWide, %struct.VlWide, %struct.VlWide, %struct.VlWide, %struct.VlWide, i64, i64, i64, i64, i64, i64, i64, i64, i64, i64, i64, i64, %struct.VlUnpacked, %struct.VlUnpacked.5, %struct.VlUnpacked.6, %struct.VlUnpacked.7 }
%struct.VlWide = type { [3 x i32] }
%struct.VlUnpacked = type { [16 x %struct.VlWide] }
%struct.VlUnpacked.5 = type { [32 x i32] }
%struct.VlUnpacked.6 = type { [16 x i8] }
%struct.VlUnpacked.7 = type { [64 x i8] }
%struct.anon.8 = type { %struct.VlUnpacked.9, %struct.VlUnpacked.10, %struct.VlUnpacked.11, %struct.VlUnpacked.10, %struct.VlUnpacked.7, %struct.VlUnpacked.12, %struct.VlUnpacked.13, %struct.VlUnpacked.13, %struct.VlUnpacked.14, %struct.VlUnpacked.15, %struct.VlUnpacked.14, %struct.VlUnpacked.15, %struct.VlUnpacked.7, %struct.VlUnpacked.16, %struct.VlUnpacked.17, %struct.VlUnpacked.13, %struct.VlUnpacked.13, %struct.VlUnpacked.13, %struct.VlUnpacked.18, %struct.VlUnpacked.18, %struct.VlUnpacked.18, %struct.VlUnpacked.18, %struct.VlUnpacked.19, %struct.VlUnpacked.15, %struct.VlUnpacked.19, %struct.VlUnpacked.15 }
%struct.VlUnpacked.9 = type { [8 x %struct.VlWide] }
%struct.VlUnpacked.11 = type { [3 x i32] }
%struct.VlUnpacked.10 = type { [3 x i8] }
%struct.VlUnpacked.12 = type { [2 x i64] }
%struct.VlUnpacked.14 = type { [512 x i64] }
%struct.VlUnpacked.16 = type { [4 x %struct.VlWide] }
%struct.VlUnpacked.17 = type { [16 x i32] }
%struct.VlUnpacked.13 = type { [2 x i8] }
%struct.VlUnpacked.18 = type { [2 x i32] }
%struct.VlUnpacked.19 = type { [1024 x i32] }
%struct.VlUnpacked.15 = type { [64 x i32] }
%class.VlTriggerVec.20 = type { %"struct.std::array", [8 x i8] }
%"struct.std::array" = type { [1 x i64] }
%class.VlTriggerVec = type { %"struct.std::array", [8 x i8] }

; Function Attrs: mustprogress nounwind uwtable
define linkonce_odr dso_local void @_ZSt9__fill_a1IPmmEN9__gnu_cxx11__enable_ifIXsr11__is_scalarIT0_EE7__valueEvE6__typeET_S6_RKS3_(ptr noundef %0, ptr noundef %1, ptr noundef nonnull align 8 dereferenceable(8) %2) #1 comdat {
  %4 = alloca ptr, align 8
  %5 = alloca ptr, align 8
  %6 = alloca ptr, align 8
  %7 = alloca i64, align 8
  store ptr %0, ptr %4, align 8
  store ptr %1, ptr %5, align 8
  store ptr %2, ptr %6, align 8
  %8 = load ptr, ptr %6, align 8
  %9 = load i64, ptr %8, align 8
  store i64 %9, ptr %7, align 8
  br label %10

10:                                               ; preds = %17, %3
  %11 = load ptr, ptr %4, align 8
  %12 = load ptr, ptr %5, align 8
  %13 = icmp ne ptr %11, %12
  br i1 %13, label %14, label %20

14:                                               ; preds = %10
  %15 = load i64, ptr %7, align 8
  %16 = load ptr, ptr %4, align 8
  store i64 %15, ptr %16, align 8
  br label %17

17:                                               ; preds = %14
  %18 = load ptr, ptr %4, align 8
  %19 = getelementptr inbounds i64, ptr %18, i32 1
  store ptr %19, ptr %4, align 8
  br label %10, !llvm.loop !16

20:                                               ; preds = %10
  ret void
}

; Function Attrs: mustprogress uwtable
define linkonce_odr dso_local void @_ZSt8__fill_aIPmmEvT_S1_RKT0_(ptr noundef %0, ptr noundef %1, ptr noundef nonnull align 8 dereferenceable(8) %2) #0 comdat {
  %4 = alloca ptr, align 8
  %5 = alloca ptr, align 8
  %6 = alloca ptr, align 8
  store ptr %0, ptr %4, align 8
  store ptr %1, ptr %5, align 8
  store ptr %2, ptr %6, align 8
  %7 = load ptr, ptr %4, align 8
  %8 = load ptr, ptr %5, align 8
  %9 = load ptr, ptr %6, align 8
  call void @_ZSt9__fill_a1IPmmEN9__gnu_cxx11__enable_ifIXsr11__is_scalarIT0_EE7__valueEvE6__typeET_S6_RKS3_(ptr noundef %7, ptr noundef %8, ptr noundef nonnull align 8 dereferenceable(8) %9)
  ret void
}

; Function Attrs: mustprogress nounwind uwtable
define linkonce_odr dso_local noundef ptr @_ZNSt14__array_traitsImLm1EE6_S_ptrERA1_Km(ptr noundef nonnull align 8 dereferenceable(8) %0) #1 comdat align 2 {
  %2 = alloca ptr, align 8
  store ptr %0, ptr %2, align 8
  %3 = load ptr, ptr %2, align 8
  %4 = getelementptr inbounds [1 x i64], ptr %3, i64 0, i64 0
  ret ptr %4
}

; Function Attrs: mustprogress uwtable
define linkonce_odr dso_local noundef ptr @_ZSt10__fill_n_aIPmmmET_S1_T0_RKT1_St26random_access_iterator_tag(ptr noundef %0, i64 noundef %1, ptr noundef nonnull align 8 dereferenceable(8) %2) #0 comdat {
  %4 = alloca ptr, align 8
  %5 = alloca ptr, align 8
  %6 = alloca i64, align 8
  %7 = alloca ptr, align 8
  store ptr %0, ptr %5, align 8
  store i64 %1, ptr %6, align 8
  store ptr %2, ptr %7, align 8
  %8 = load i64, ptr %6, align 8
  %9 = icmp ule i64 %8, 0
  br i1 %9, label %10, label %12

10:                                               ; preds = %3
  %11 = load ptr, ptr %5, align 8
  store ptr %11, ptr %4, align 8
  br label %21

12:                                               ; preds = %3
  %13 = load ptr, ptr %5, align 8
  %14 = load ptr, ptr %5, align 8
  %15 = load i64, ptr %6, align 8
  %16 = getelementptr inbounds i64, ptr %14, i64 %15
  %17 = load ptr, ptr %7, align 8
  call void @_ZSt8__fill_aIPmmEvT_S1_RKT0_(ptr noundef %13, ptr noundef %16, ptr noundef nonnull align 8 dereferenceable(8) %17)
  %18 = load ptr, ptr %5, align 8
  %19 = load i64, ptr %6, align 8
  %20 = getelementptr inbounds i64, ptr %18, i64 %19
  store ptr %20, ptr %4, align 8
  br label %21

21:                                               ; preds = %12, %10
  %22 = load ptr, ptr %4, align 8
  ret ptr %22
}

; Function Attrs: mustprogress nounwind uwtable
define linkonce_odr dso_local void @_ZSt19__iterator_categoryIPmENSt15iterator_traitsIT_E17iterator_categoryERKS2_(ptr noundef nonnull align 8 dereferenceable(8) %0) #1 comdat {
  %2 = alloca ptr, align 8
  store ptr %0, ptr %2, align 8
  ret void
}

; Function Attrs: mustprogress nounwind uwtable
define linkonce_odr dso_local noundef i64 @_ZSt17__size_to_integerm(i64 noundef %0) #1 comdat {
  %2 = alloca i64, align 8
  store i64 %0, ptr %2, align 8
  %3 = load i64, ptr %2, align 8
  ret i64 %3
}

; Function Attrs: mustprogress nounwind willreturn memory(none) uwtable
define linkonce_odr dso_local noundef ptr @_ZNSt5arrayImLm1EE4dataEv(ptr noundef nonnull align 8 dereferenceable(8) %0) #3 comdat align 2 {
  %2 = alloca ptr, align 8
  store ptr %0, ptr %2, align 8
  %3 = load ptr, ptr %2, align 8
  %4 = getelementptr inbounds %"struct.std::array", ptr %3, i32 0, i32 0
  %5 = call noundef ptr @_ZNSt14__array_traitsImLm1EE6_S_ptrERA1_Km(ptr noundef nonnull align 8 dereferenceable(8) %4) #5
  ret ptr %5
}

; Function Attrs: mustprogress uwtable
define linkonce_odr dso_local noundef ptr @_ZSt6fill_nIPmmmET_S1_T0_RKT1_(ptr noundef %0, i64 noundef %1, ptr noundef nonnull align 8 dereferenceable(8) %2) #0 comdat {
  %4 = alloca ptr, align 8
  %5 = alloca i64, align 8
  %6 = alloca ptr, align 8
  store ptr %0, ptr %4, align 8
  store i64 %1, ptr %5, align 8
  store ptr %2, ptr %6, align 8
  %7 = load ptr, ptr %4, align 8
  %8 = load i64, ptr %5, align 8
  %9 = call noundef i64 @_ZSt17__size_to_integerm(i64 noundef %8)
  %10 = load ptr, ptr %6, align 8
  call void @_ZSt19__iterator_categoryIPmENSt15iterator_traitsIT_E17iterator_categoryERKS2_(ptr noundef nonnull align 8 dereferenceable(8) %4)
  %11 = call noundef ptr @_ZSt10__fill_n_aIPmmmET_S1_T0_RKT1_St26random_access_iterator_tag(ptr noundef %7, i64 noundef %9, ptr noundef nonnull align 8 dereferenceable(8) %10)
  ret ptr %11
}

; Function Attrs: mustprogress nounwind willreturn memory(none) uwtable
define linkonce_odr dso_local noundef ptr @_ZNSt5arrayImLm1EE5beginEv(ptr noundef nonnull align 8 dereferenceable(8) %0) #3 comdat align 2 {
  %2 = alloca ptr, align 8
  store ptr %0, ptr %2, align 8
  %3 = load ptr, ptr %2, align 8
  %4 = call noundef ptr @_ZNSt5arrayImLm1EE4dataEv(ptr noundef nonnull align 8 dereferenceable(8) %3) #4
  ret ptr %4
}

; Function Attrs: mustprogress nounwind uwtable
define linkonce_odr dso_local noundef nonnull align 8 dereferenceable(8) ptr @_ZNSt14__array_traitsImLm1EE6_S_refERA1_Kmm(ptr noundef nonnull align 8 dereferenceable(8) %0, i64 noundef %1) #1 comdat align 2 {
  %3 = alloca ptr, align 8
  %4 = alloca i64, align 8
  store ptr %0, ptr %3, align 8
  store i64 %1, ptr %4, align 8
  %5 = load ptr, ptr %3, align 8
  %6 = load i64, ptr %4, align 8
  %7 = getelementptr inbounds [1 x i64], ptr %5, i64 0, i64 %6
  ret ptr %7
}

; Function Attrs: mustprogress uwtable
define linkonce_odr dso_local void @_ZNSt5arrayImLm1EE4fillERKm(ptr noundef nonnull align 8 dereferenceable(8) %0, ptr noundef nonnull align 8 dereferenceable(8) %1) #0 comdat align 2 {
  %3 = alloca ptr, align 8
  %4 = alloca ptr, align 8
  store ptr %0, ptr %3, align 8
  store ptr %1, ptr %4, align 8
  %5 = load ptr, ptr %3, align 8
  %6 = call noundef ptr @_ZNSt5arrayImLm1EE5beginEv(ptr noundef nonnull align 8 dereferenceable(8) %5) #4
  %7 = call noundef i64 @_ZNKSt5arrayImLm1EE4sizeEv(ptr noundef nonnull align 8 dereferenceable(8) %5) #4
  %8 = load ptr, ptr %4, align 8
  %9 = call noundef ptr @_ZSt6fill_nIPmmmET_S1_T0_RKT1_(ptr noundef %6, i64 noundef %7, ptr noundef nonnull align 8 dereferenceable(8) %8)
  ret void
}

; Function Attrs: mustprogress nounwind uwtable
define linkonce_odr dso_local noundef nonnull align 8 dereferenceable(8) ptr @_ZNSt5arrayImLm1EEixEm(ptr noundef nonnull align 8 dereferenceable(8) %0, i64 noundef %1) #1 comdat align 2 {
  %3 = alloca ptr, align 8
  %4 = alloca i64, align 8
  store ptr %0, ptr %3, align 8
  store i64 %1, ptr %4, align 8
  %5 = load ptr, ptr %3, align 8
  %6 = getelementptr inbounds %"struct.std::array", ptr %5, i32 0, i32 0
  %7 = load i64, ptr %4, align 8
  %8 = call noundef nonnull align 8 dereferenceable(8) ptr @_ZNSt14__array_traitsImLm1EE6_S_refERA1_Kmm(ptr noundef nonnull align 8 dereferenceable(8) %6, i64 noundef %7) #5
  ret ptr %8
}

; Function Attrs: mustprogress nounwind uwtable
define linkonce_odr dso_local noundef nonnull align 8 dereferenceable(8) ptr @_ZNKSt5arrayImLm1EEixEm(ptr noundef nonnull align 8 dereferenceable(8) %0, i64 noundef %1) #1 comdat align 2 {
  %3 = alloca ptr, align 8
  %4 = alloca i64, align 8
  store ptr %0, ptr %3, align 8
  store i64 %1, ptr %4, align 8
  %5 = load ptr, ptr %3, align 8
  %6 = getelementptr inbounds %"struct.std::array", ptr %5, i32 0, i32 0
  %7 = load i64, ptr %4, align 8
  %8 = call noundef nonnull align 8 dereferenceable(8) ptr @_ZNSt14__array_traitsImLm1EE6_S_refERA1_Kmm(ptr noundef nonnull align 8 dereferenceable(8) %6, i64 noundef %7) #5
  ret ptr %8
}

; Function Attrs: mustprogress nounwind willreturn memory(none) uwtable
define linkonce_odr dso_local noundef i64 @_ZNKSt5arrayImLm1EE4sizeEv(ptr noundef nonnull align 8 dereferenceable(8) %0) #3 comdat align 2 {
  %2 = alloca ptr, align 8
  store ptr %0, ptr %2, align 8
  ret i64 1
}

; Function Attrs: mustprogress uwtable
define linkonce_odr dso_local void @_ZN12VlTriggerVecILm2EE5clearEv(ptr noundef nonnull align 16 dereferenceable(16) %0) #0 comdat align 2 {
  %2 = alloca ptr, align 8
  %3 = alloca i64, align 8
  store ptr %0, ptr %2, align 8
  %4 = load ptr, ptr %2, align 8
  %5 = getelementptr inbounds %class.VlTriggerVec, ptr %4, i32 0, i32 0
  store i64 0, ptr %3, align 8
  call void @_ZNSt5arrayImLm1EE4fillERKm(ptr noundef nonnull align 8 dereferenceable(8) %5, ptr noundef nonnull align 8 dereferenceable(8) %3)
  ret void
}

; Function Attrs: mustprogress nounwind uwtable
define linkonce_odr dso_local void @_ZN12VlTriggerVecILm2EE6thisOrERKS0_(ptr noundef nonnull align 16 dereferenceable(16) %0, ptr noundef nonnull align 16 dereferenceable(16) %1) #1 comdat align 2 {
  %3 = alloca ptr, align 8
  %4 = alloca ptr, align 8
  %5 = alloca i64, align 8
  store ptr %0, ptr %3, align 8
  store ptr %1, ptr %4, align 8
  %6 = load ptr, ptr %3, align 8
  store i64 0, ptr %5, align 8
  br label %7

7:                                                ; preds = %23, %2
  %8 = load i64, ptr %5, align 8
  %9 = getelementptr inbounds %class.VlTriggerVec, ptr %6, i32 0, i32 0
  %10 = call noundef i64 @_ZNKSt5arrayImLm1EE4sizeEv(ptr noundef nonnull align 8 dereferenceable(8) %9) #4
  %11 = icmp ult i64 %8, %10
  br i1 %11, label %12, label %26

12:                                               ; preds = %7
  %13 = load ptr, ptr %4, align 8
  %14 = getelementptr inbounds %class.VlTriggerVec, ptr %13, i32 0, i32 0
  %15 = load i64, ptr %5, align 8
  %16 = call noundef nonnull align 8 dereferenceable(8) ptr @_ZNKSt5arrayImLm1EEixEm(ptr noundef nonnull align 8 dereferenceable(8) %14, i64 noundef %15) #5
  %17 = load i64, ptr %16, align 8
  %18 = getelementptr inbounds %class.VlTriggerVec, ptr %6, i32 0, i32 0
  %19 = load i64, ptr %5, align 8
  %20 = call noundef nonnull align 8 dereferenceable(8) ptr @_ZNSt5arrayImLm1EEixEm(ptr noundef nonnull align 8 dereferenceable(8) %18, i64 noundef %19) #5
  %21 = load i64, ptr %20, align 8
  %22 = or i64 %21, %17
  store i64 %22, ptr %20, align 8
  br label %23

23:                                               ; preds = %12
  %24 = load i64, ptr %5, align 8
  %25 = add i64 %24, 1
  store i64 %25, ptr %5, align 8
  br label %7, !llvm.loop !12

26:                                               ; preds = %7
  ret void
}

; Function Attrs: mustprogress nounwind uwtable
define linkonce_odr dso_local void @_ZN12VlTriggerVecILm2EE6andNotERKS0_S2_(ptr noundef nonnull align 16 dereferenceable(16) %0, ptr noundef nonnull align 16 dereferenceable(16) %1, ptr noundef nonnull align 16 dereferenceable(16) %2) #1 comdat align 2 {
  %4 = alloca ptr, align 8
  %5 = alloca ptr, align 8
  %6 = alloca ptr, align 8
  %7 = alloca i64, align 8
  store ptr %0, ptr %4, align 8
  store ptr %1, ptr %5, align 8
  store ptr %2, ptr %6, align 8
  %8 = load ptr, ptr %4, align 8
  store i64 0, ptr %7, align 8
  br label %9

9:                                                ; preds = %30, %3
  %10 = load i64, ptr %7, align 8
  %11 = getelementptr inbounds %class.VlTriggerVec, ptr %8, i32 0, i32 0
  %12 = call noundef i64 @_ZNKSt5arrayImLm1EE4sizeEv(ptr noundef nonnull align 8 dereferenceable(8) %11) #4
  %13 = icmp ult i64 %10, %12
  br i1 %13, label %14, label %33

14:                                               ; preds = %9
  %15 = load ptr, ptr %5, align 8
  %16 = getelementptr inbounds %class.VlTriggerVec, ptr %15, i32 0, i32 0
  %17 = load i64, ptr %7, align 8
  %18 = call noundef nonnull align 8 dereferenceable(8) ptr @_ZNKSt5arrayImLm1EEixEm(ptr noundef nonnull align 8 dereferenceable(8) %16, i64 noundef %17) #5
  %19 = load i64, ptr %18, align 8
  %20 = load ptr, ptr %6, align 8
  %21 = getelementptr inbounds %class.VlTriggerVec, ptr %20, i32 0, i32 0
  %22 = load i64, ptr %7, align 8
  %23 = call noundef nonnull align 8 dereferenceable(8) ptr @_ZNKSt5arrayImLm1EEixEm(ptr noundef nonnull align 8 dereferenceable(8) %21, i64 noundef %22) #5
  %24 = load i64, ptr %23, align 8
  %25 = xor i64 %24, -1
  %26 = and i64 %19, %25
  %27 = getelementptr inbounds %class.VlTriggerVec, ptr %8, i32 0, i32 0
  %28 = load i64, ptr %7, align 8
  %29 = call noundef nonnull align 8 dereferenceable(8) ptr @_ZNSt5arrayImLm1EEixEm(ptr noundef nonnull align 8 dereferenceable(8) %27, i64 noundef %28) #5
  store i64 %26, ptr %29, align 8
  br label %30

30:                                               ; preds = %14
  %31 = load i64, ptr %7, align 8
  %32 = add i64 %31, 1
  store i64 %32, ptr %7, align 8
  br label %9, !llvm.loop !11

33:                                               ; preds = %9
  ret void
}

; Function Attrs: mustprogress nounwind uwtable
define linkonce_odr dso_local noundef zeroext i1 @_ZNK12VlTriggerVecILm2EE3anyEv(ptr noundef nonnull align 16 dereferenceable(16) %0) #1 comdat align 2 {
  %2 = alloca i1, align 1
  %3 = alloca ptr, align 8
  %4 = alloca i64, align 8
  store ptr %0, ptr %3, align 8
  %5 = load ptr, ptr %3, align 8
  store i64 0, ptr %4, align 8
  br label %6

6:                                                ; preds = %19, %1
  %7 = load i64, ptr %4, align 8
  %8 = getelementptr inbounds %class.VlTriggerVec, ptr %5, i32 0, i32 0
  %9 = call noundef i64 @_ZNKSt5arrayImLm1EE4sizeEv(ptr noundef nonnull align 8 dereferenceable(8) %8) #4
  %10 = icmp ult i64 %7, %9
  br i1 %10, label %11, label %22

11:                                               ; preds = %6
  %12 = getelementptr inbounds %class.VlTriggerVec, ptr %5, i32 0, i32 0
  %13 = load i64, ptr %4, align 8
  %14 = call noundef nonnull align 8 dereferenceable(8) ptr @_ZNKSt5arrayImLm1EEixEm(ptr noundef nonnull align 8 dereferenceable(8) %12, i64 noundef %13) #5
  %15 = load i64, ptr %14, align 8
  %16 = icmp ne i64 %15, 0
  br i1 %16, label %17, label %18

17:                                               ; preds = %11
  store i1 true, ptr %2, align 1
  br label %23

18:                                               ; preds = %11
  br label %19

19:                                               ; preds = %18
  %20 = load i64, ptr %4, align 8
  %21 = add i64 %20, 1
  store i64 %21, ptr %4, align 8
  br label %6, !llvm.loop !10

22:                                               ; preds = %6
  store i1 false, ptr %2, align 1
  br label %23

23:                                               ; preds = %22, %17
  %24 = load i1, ptr %2, align 1
  ret i1 %24
}

; Function Attrs: mustprogress uwtable
define linkonce_odr dso_local void @_ZN12VlTriggerVecILm2EEC2Ev(ptr noundef nonnull align 16 dereferenceable(16) %0) unnamed_addr #0 comdat align 2 {
  %2 = alloca ptr, align 8
  store ptr %0, ptr %2, align 8
  %3 = load ptr, ptr %2, align 8
  call void @_ZN12VlTriggerVecILm2EE5clearEv(ptr noundef nonnull align 16 dereferenceable(16) %3)
  ret void
}

; Function Attrs: mustprogress uwtable
define dso_local noundef zeroext i1 @_Z38Vmycpu_top___024root___eval_phase__actP20Vmycpu_top___024root(ptr noundef %0) #0 {
  %2 = alloca ptr, align 8
  %3 = alloca ptr, align 8
  %4 = alloca %class.VlTriggerVec, align 16
  %5 = alloca i8, align 1
  store ptr %0, ptr %2, align 8
  %6 = load ptr, ptr %2, align 8
  %7 = getelementptr inbounds %class.Vmycpu_top___024root, ptr %6, i32 0, i32 13
  %8 = load ptr, ptr %7, align 64
  store ptr %8, ptr %3, align 8
  br label %9

9:                                                ; preds = %1
  br label %10

10:                                               ; preds = %9
  call void @_ZN12VlTriggerVecILm2EEC2Ev(ptr noundef nonnull align 16 dereferenceable(16) %4)
  %11 = load ptr, ptr %2, align 8
  call void @_Z41Vmycpu_top___024root___eval_triggers__actP20Vmycpu_top___024root(ptr noundef %11)
  %12 = load ptr, ptr %2, align 8
  %13 = getelementptr inbounds %class.Vmycpu_top___024root, ptr %12, i32 0, i32 11
  %14 = call noundef zeroext i1 @_ZNK12VlTriggerVecILm2EE3anyEv(ptr noundef nonnull align 16 dereferenceable(16) %13)
  %15 = zext i1 %14 to i8
  store i8 %15, ptr %5, align 1
  %16 = load i8, ptr %5, align 1
  %17 = icmp ne i8 %16, 0
  br i1 %17, label %18, label %28

18:                                               ; preds = %10
  %19 = load ptr, ptr %2, align 8
  %20 = getelementptr inbounds %class.Vmycpu_top___024root, ptr %19, i32 0, i32 11
  %21 = load ptr, ptr %2, align 8
  %22 = getelementptr inbounds %class.Vmycpu_top___024root, ptr %21, i32 0, i32 12
  call void @_ZN12VlTriggerVecILm2EE6andNotERKS0_S2_(ptr noundef nonnull align 16 dereferenceable(16) %4, ptr noundef nonnull align 16 dereferenceable(16) %20, ptr noundef nonnull align 16 dereferenceable(16) %22)
  %23 = load ptr, ptr %2, align 8
  %24 = getelementptr inbounds %class.Vmycpu_top___024root, ptr %23, i32 0, i32 12
  %25 = load ptr, ptr %2, align 8
  %26 = getelementptr inbounds %class.Vmycpu_top___024root, ptr %25, i32 0, i32 11
  call void @_ZN12VlTriggerVecILm2EE6thisOrERKS0_(ptr noundef nonnull align 16 dereferenceable(16) %24, ptr noundef nonnull align 16 dereferenceable(16) %26)
  %27 = load ptr, ptr %2, align 8
  call void @_Z31Vmycpu_top___024root___eval_actP20Vmycpu_top___024root(ptr noundef %27)
  br label %28

28:                                               ; preds = %18, %10
  %29 = load i8, ptr %5, align 1
  %30 = icmp ne i8 %29, 0
  ret i1 %30
}