; Function Attrs: mustprogress uwtable
define dso_local noundef zeroext i1 @_Z38Vmycpu_top___024root___eval_phase__actP20Vmycpu_top___024root(ptr noundef %0) local_unnamed_addr #4 {
  tail call void @_Z41Vmycpu_top___024root___eval_triggers__actP20Vmycpu_top___024root(ptr noundef %0)
  %2 = getelementptr inbounds i8, ptr %0, i64 19232
  br label %3

3:                                                ; preds = %5, %1
  %4 = phi i1 [ true, %1 ], [ false, %5 ]
  %.0.i = phi i64 [ 0, %1 ], [ 1, %5 ]
  br i1 %4, label %5, label %_ZNK12VlTriggerVecILm2EE3anyEv.exit

5:                                                ; preds = %3
  %6 = getelementptr inbounds [1 x i64], ptr %2, i64 0, i64 %.0.i
  %7 = load i64, ptr %6, align 8
  %.not.i = icmp eq i64 %7, 0
  br i1 %.not.i, label %3, label %8, !llvm.loop !10

8:                                                ; preds = %5
  %9 = getelementptr inbounds i8, ptr %0, i64 19248
  %10 = load i64, ptr %2, align 8
  %11 = load i64, ptr %9, align 8
  %12 = or i64 %11, %10
  store i64 %12, ptr %9, align 8
  tail call void @_Z31Vmycpu_top___024root___eval_actP20Vmycpu_top___024root(ptr noundef nonnull %0)
  br label %_ZNK12VlTriggerVecILm2EE3anyEv.exit

_ZNK12VlTriggerVecILm2EE3anyEv.exit:              ; preds = %3, %8
  ret i1 %4
}